target datalayout = "e-m:e-p270:32:32-p271:32:32-p272:64:64-i64:64-i128:128-f80:128-n8:16:32:64-S128"
target triple = "x86_64-pc-linux-gnu"

%struct.idarg_int64_converter_data = type { ptr, i64 }

@.str.30 = private unnamed_addr constant [9 x i8] c"queue ID\00", align 1

; Function Attrs: nounwind uwtable
define internal i32 @qidarg_converter(ptr noundef %0, ptr noundef %1) #0 {
  %3 = alloca ptr, align 8
  %4 = alloca ptr, align 8
  %5 = alloca ptr, align 8
  store ptr %0, ptr %3, align 8, !tbaa !3
  store ptr %1, ptr %4, align 8, !tbaa !8
  call void @llvm.lifetime.start.p0(i64 8, ptr %5) #8
  %6 = load ptr, ptr %4, align 8, !tbaa !8
  store ptr %6, ptr %5, align 8, !tbaa !80
  %7 = load ptr, ptr %5, align 8, !tbaa !80
  %8 = getelementptr inbounds nuw %struct.idarg_int64_converter_data, ptr %7, i32 0, i32 0
  %9 = load ptr, ptr %8, align 8, !tbaa !82
  %10 = icmp eq ptr %9, null
  br i1 %10, label %11, label %14

11:                                               ; preds = %2
  %12 = load ptr, ptr %5, align 8, !tbaa !80
  %13 = getelementptr inbounds nuw %struct.idarg_int64_converter_data, ptr %12, i32 0, i32 0
  store ptr @.str.30, ptr %13, align 8, !tbaa !82
  br label %14

14:                                               ; preds = %11, %2
  %15 = load ptr, ptr %3, align 8, !tbaa !3
  %16 = load ptr, ptr %4, align 8, !tbaa !8
  %17 = call i32 @idarg_int64_converter(ptr noundef %15, ptr noundef %16)
  call void @llvm.lifetime.end.p0(i64 8, ptr %5) #8
  ret i32 %17
}