; Function Attrs: nounwind uwtable
define internal range(i32 0, 2) i32 @qidarg_converter(ptr noundef %0, ptr noundef captures(none) %1) #0 {
  %3 = load ptr, ptr %1, align 8, !tbaa !87
  %4 = icmp eq ptr %3, null
  br i1 %4, label %5, label %6

5:                                                ; preds = %2
  store ptr @.str.30, ptr %1, align 8, !tbaa !87
  br label %6

6:                                                ; preds = %5, %2
  %7 = tail call fastcc i32 @idarg_int64_converter(ptr noundef %0, ptr noundef nonnull %1)
  ret i32 %7
}